target datalayout = "e-m:e-p270:32:32-p271:32:32-p272:64:64-i64:64-i128:128-f80:128-n8:16:32:64-S128"
target triple = "x86_64-pc-linux-gnu"

%struct.helptxt = type { ptr, ptr, i32 }

@helptext = external constant [0 x %struct.helptxt], align 8
@.str.31 = private unnamed_addr constant [11 x i8] c" %-*s  %s\0A\00", align 1

; Function Attrs: nounwind uwtable
define internal void @print_category(i32 noundef %0, i32 noundef %1) #0 {
  %3 = alloca i32, align 4
  %4 = alloca i32, align 4
  %5 = alloca i32, align 4
  %6 = alloca i64, align 8
  %7 = alloca i64, align 8
  %8 = alloca i64, align 8
  %9 = alloca i32, align 4
  %10 = alloca i64, align 8
  %11 = alloca i64, align 8
  store i32 %0, ptr %3, align 4, !tbaa !27
  store i32 %1, ptr %4, align 4, !tbaa !27
  call void @llvm.lifetime.start.p0(i64 4, ptr %5) #9
  call void @llvm.lifetime.start.p0(i64 8, ptr %6) #9
  store i64 5, ptr %6, align 8, !tbaa !21
  call void @llvm.lifetime.start.p0(i64 8, ptr %7) #9
  store i64 5, ptr %7, align 8, !tbaa !21
  store i32 0, ptr %5, align 4, !tbaa !27
  br label %12

12:                                               ; preds = %57, %2
  %13 = load i32, ptr %5, align 4, !tbaa !27
  %14 = zext i32 %13 to i64
  %15 = getelementptr inbounds nuw [0 x %struct.helptxt], ptr @helptext, i64 0, i64 %14
  %16 = getelementptr inbounds nuw %struct.helptxt, ptr %15, i32 0, i32 0
  %17 = load ptr, ptr %16, align 8, !tbaa !41
  %18 = icmp ne ptr %17, null
  br i1 %18, label %19, label %60

19:                                               ; preds = %12
  call void @llvm.lifetime.start.p0(i64 8, ptr %8) #9
  %20 = load i32, ptr %5, align 4, !tbaa !27
  %21 = zext i32 %20 to i64
  %22 = getelementptr inbounds nuw [0 x %struct.helptxt], ptr @helptext, i64 0, i64 %21
  %23 = getelementptr inbounds nuw %struct.helptxt, ptr %22, i32 0, i32 2
  %24 = load i32, ptr %23, align 8, !tbaa !43
  %25 = load i32, ptr %3, align 4, !tbaa !27
  %26 = and i32 %24, %25
  %27 = icmp ne i32 %26, 0
  br i1 %27, label %29, label %28

28:                                               ; preds = %19
  store i32 4, ptr %9, align 4
  br label %54

29:                                               ; preds = %19
  %30 = load i32, ptr %5, align 4, !tbaa !27
  %31 = zext i32 %30 to i64
  %32 = getelementptr inbounds nuw [0 x %struct.helptxt], ptr @helptext, i64 0, i64 %31
  %33 = getelementptr inbounds nuw %struct.helptxt, ptr %32, i32 0, i32 0
  %34 = load ptr, ptr %33, align 8, !tbaa !41
  %35 = call i64 @strlen(ptr noundef %34) #8
  store i64 %35, ptr %8, align 8, !tbaa !21
  %36 = load i64, ptr %8, align 8, !tbaa !21
  %37 = load i64, ptr %6, align 8, !tbaa !21
  %38 = icmp ugt i64 %36, %37
  br i1 %38, label %39, label %41

39:                                               ; preds = %29
  %40 = load i64, ptr %8, align 8, !tbaa !21
  store i64 %40, ptr %6, align 8, !tbaa !21
  br label %41

41:                                               ; preds = %39, %29
  %42 = load i32, ptr %5, align 4, !tbaa !27
  %43 = zext i32 %42 to i64
  %44 = getelementptr inbounds nuw [0 x %struct.helptxt], ptr @helptext, i64 0, i64 %43
  %45 = getelementptr inbounds nuw %struct.helptxt, ptr %44, i32 0, i32 1
  %46 = load ptr, ptr %45, align 8, !tbaa !44
  %47 = call i64 @strlen(ptr noundef %46) #8
  store i64 %47, ptr %8, align 8, !tbaa !21
  %48 = load i64, ptr %8, align 8, !tbaa !21
  %49 = load i64, ptr %7, align 8, !tbaa !21
  %50 = icmp ugt i64 %48, %49
  br i1 %50, label %51, label %53

51:                                               ; preds = %41
  %52 = load i64, ptr %8, align 8, !tbaa !21
  store i64 %52, ptr %7, align 8, !tbaa !21
  br label %53

53:                                               ; preds = %51, %41
  store i32 0, ptr %9, align 4
  br label %54

54:                                               ; preds = %53, %28
  call void @llvm.lifetime.end.p0(i64 8, ptr %8) #9
  %55 = load i32, ptr %9, align 4
  switch i32 %55, label %137 [
    i32 0, label %56
    i32 4, label %57
  ]

56:                                               ; preds = %54
  br label %57

57:                                               ; preds = %56, %54
  %58 = load i32, ptr %5, align 4, !tbaa !27
  %59 = add i32 %58, 1
  store i32 %59, ptr %5, align 4, !tbaa !27
  br label %12, !llvm.loop !45

60:                                               ; preds = %12
  %61 = load i64, ptr %6, align 8, !tbaa !21
  %62 = load i64, ptr %7, align 8, !tbaa !21
  %63 = add i64 %61, %62
  %64 = load i32, ptr %4, align 4, !tbaa !27
  %65 = zext i32 %64 to i64
  %66 = icmp ugt i64 %63, %65
  br i1 %66, label %67, label %72

67:                                               ; preds = %60
  %68 = load i32, ptr %4, align 4, !tbaa !27
  %69 = zext i32 %68 to i64
  %70 = load i64, ptr %7, align 8, !tbaa !21
  %71 = sub i64 %69, %70
  store i64 %71, ptr %6, align 8, !tbaa !21
  br label %72

72:                                               ; preds = %67, %60
  store i32 0, ptr %5, align 4, !tbaa !27
  br label %73

73:                                               ; preds = %133, %72
  %74 = load i32, ptr %5, align 4, !tbaa !27
  %75 = zext i32 %74 to i64
  %76 = getelementptr inbounds nuw [0 x %struct.helptxt], ptr @helptext, i64 0, i64 %75
  %77 = getelementptr inbounds nuw %struct.helptxt, ptr %76, i32 0, i32 0
  %78 = load ptr, ptr %77, align 8, !tbaa !41
  %79 = icmp ne ptr %78, null
  br i1 %79, label %80, label %136

80:                                               ; preds = %73
  %81 = load i32, ptr %5, align 4, !tbaa !27
  %82 = zext i32 %81 to i64
  %83 = getelementptr inbounds nuw [0 x %struct.helptxt], ptr @helptext, i64 0, i64 %82
  %84 = getelementptr inbounds nuw %struct.helptxt, ptr %83, i32 0, i32 2
  %85 = load i32, ptr %84, align 8, !tbaa !43
  %86 = load i32, ptr %3, align 4, !tbaa !27
  %87 = and i32 %85, %86
  %88 = icmp ne i32 %87, 0
  br i1 %88, label %89, label %132

89:                                               ; preds = %80
  call void @llvm.lifetime.start.p0(i64 8, ptr %10) #9
  %90 = load i64, ptr %6, align 8, !tbaa !21
  store i64 %90, ptr %10, align 8, !tbaa !21
  call void @llvm.lifetime.start.p0(i64 8, ptr %11) #9
  %91 = load i32, ptr %5, align 4, !tbaa !27
  %92 = zext i32 %91 to i64
  %93 = getelementptr inbounds nuw [0 x %struct.helptxt], ptr @helptext, i64 0, i64 %92
  %94 = getelementptr inbounds nuw %struct.helptxt, ptr %93, i32 0, i32 1
  %95 = load ptr, ptr %94, align 8, !tbaa !44
  %96 = call i64 @strlen(ptr noundef %95) #8
  store i64 %96, ptr %11, align 8, !tbaa !21
  %97 = load i64, ptr %10, align 8, !tbaa !21
  %98 = load i64, ptr %11, align 8, !tbaa !21
  %99 = add i64 %97, %98
  %100 = load i32, ptr %4, align 4, !tbaa !27
  %101 = sub i32 %100, 2
  %102 = zext i32 %101 to i64
  %103 = icmp uge i64 %99, %102
  br i1 %103, label %104, label %118

104:                                              ; preds = %89
  %105 = load i64, ptr %11, align 8, !tbaa !21
  %106 = load i32, ptr %4, align 4, !tbaa !27
  %107 = sub i32 %106, 2
  %108 = zext i32 %107 to i64
  %109 = icmp ult i64 %105, %108
  br i1 %109, label %110, label %116

110:                                              ; preds = %104
  %111 = load i32, ptr %4, align 4, !tbaa !27
  %112 = sub i32 %111, 3
  %113 = zext i32 %112 to i64
  %114 = load i64, ptr %11, align 8, !tbaa !21
  %115 = sub i64 %113, %114
  store i64 %115, ptr %10, align 8, !tbaa !21
  br label %117

116:                                              ; preds = %104
  store i64 0, ptr %10, align 8, !tbaa !21
  br label %117

117:                                              ; preds = %116, %110
  br label %118

118:                                              ; preds = %117, %89
  %119 = load i64, ptr %10, align 8, !tbaa !21
  %120 = trunc i64 %119 to i32
  %121 = load i32, ptr %5, align 4, !tbaa !27
  %122 = zext i32 %121 to i64
  %123 = getelementptr inbounds nuw [0 x %struct.helptxt], ptr @helptext, i64 0, i64 %122
  %124 = getelementptr inbounds nuw %struct.helptxt, ptr %123, i32 0, i32 0
  %125 = load ptr, ptr %124, align 8, !tbaa !41
  %126 = load i32, ptr %5, align 4, !tbaa !27
  %127 = zext i32 %126 to i64
  %128 = getelementptr inbounds nuw [0 x %struct.helptxt], ptr @helptext, i64 0, i64 %127
  %129 = getelementptr inbounds nuw %struct.helptxt, ptr %128, i32 0, i32 1
  %130 = load ptr, ptr %129, align 8, !tbaa !44
  %131 = call i32 (ptr, ...) @curl_mprintf(ptr noundef @.str.31, i32 noundef %120, ptr noundef %125, ptr noundef %130)
  call void @llvm.lifetime.end.p0(i64 8, ptr %11) #9
  call void @llvm.lifetime.end.p0(i64 8, ptr %10) #9
  br label %132

132:                                              ; preds = %118, %80
  br label %133

133:                                              ; preds = %132
  %134 = load i32, ptr %5, align 4, !tbaa !27
  %135 = add i32 %134, 1
  store i32 %135, ptr %5, align 4, !tbaa !27
  br label %73, !llvm.loop !46

136:                                              ; preds = %73
  call void @llvm.lifetime.end.p0(i64 8, ptr %7) #9
  call void @llvm.lifetime.end.p0(i64 8, ptr %6) #9
  call void @llvm.lifetime.end.p0(i64 4, ptr %5) #9
  ret void

137:                                              ; preds = %54
  unreachable
}