; Function Attrs: nounwind uwtable
define internal fastcc void @print_category(i32 noundef %0, i32 noundef %1) unnamed_addr #7 {
  %3 = load ptr, ptr @helptext, align 8, !tbaa !36
  %.not50 = icmp eq ptr %3, null
  br i1 %.not50, label %._crit_edge59, label %.lr.ph

.lr.ph:                                           ; preds = %2, %14
  %4 = phi ptr [ %18, %14 ], [ %3, %2 ]
  %5 = phi ptr [ %17, %14 ], [ @helptext, %2 ]
  %.053 = phi i32 [ %15, %14 ], [ 0, %2 ]
  %.03452 = phi i64 [ %.135, %14 ], [ 5, %2 ]
  %.03651 = phi i64 [ %.137, %14 ], [ 5, %2 ]
  %6 = getelementptr inbounds nuw i8, ptr %5, i64 16
  %7 = load i32, ptr %6, align 8, !tbaa !38
  %8 = and i32 %7, %0
  %.not48 = icmp eq i32 %8, 0
  br i1 %.not48, label %14, label %9

9:                                                ; preds = %.lr.ph
  %10 = tail call i64 @strlen(ptr noundef nonnull dereferenceable(1) %4) #15
  %spec.select = tail call i64 @llvm.umax.i64(i64 %10, i64 %.03651)
  %11 = getelementptr inbounds nuw i8, ptr %5, i64 8
  %12 = load ptr, ptr %11, align 8, !tbaa !39
  %13 = tail call i64 @strlen(ptr noundef nonnull dereferenceable(1) %12) #15
  %.2 = tail call i64 @llvm.umax.i64(i64 %13, i64 %.03452)
  br label %14

14:                                               ; preds = %.lr.ph, %9
  %.137 = phi i64 [ %spec.select, %9 ], [ %.03651, %.lr.ph ]
  %.135 = phi i64 [ %.2, %9 ], [ %.03452, %.lr.ph ]
  %15 = add i32 %.053, 1
  %16 = zext i32 %15 to i64
  %17 = getelementptr inbounds nuw [0 x %struct.helptxt], ptr @helptext, i64 0, i64 %16
  %18 = load ptr, ptr %17, align 8, !tbaa !36
  %.not = icmp eq ptr %18, null
  br i1 %.not, label %._crit_edge, label %.lr.ph, !llvm.loop !40

._crit_edge:                                      ; preds = %14
  %19 = add i64 %.135, %.137
  %20 = zext i32 %1 to i64
  %21 = icmp ugt i64 %19, %20
  %22 = sub i64 %20, %.135
  %spec.select49 = select i1 %21, i64 %22, i64 %.137
  %23 = add i32 %1, -2
  %24 = zext i32 %23 to i64
  %25 = add i32 %1, -3
  %26 = zext i32 %25 to i64
  br label %27

27:                                               ; preds = %._crit_edge, %42
  %28 = phi ptr [ %3, %._crit_edge ], [ %46, %42 ]
  %29 = phi ptr [ @helptext, %._crit_edge ], [ %45, %42 ]
  %.156 = phi i32 [ 0, %._crit_edge ], [ %43, %42 ]
  %30 = getelementptr inbounds nuw i8, ptr %29, i64 16
  %31 = load i32, ptr %30, align 8, !tbaa !38
  %32 = and i32 %31, %0
  %.not46 = icmp eq i32 %32, 0
  br i1 %.not46, label %42, label %33

33:                                               ; preds = %27
  %34 = getelementptr inbounds nuw i8, ptr %29, i64 8
  %35 = load ptr, ptr %34, align 8, !tbaa !39
  %36 = tail call i64 @strlen(ptr noundef nonnull dereferenceable(1) %35) #15
  %37 = add i64 %36, %spec.select49
  %.not47 = icmp ult i64 %37, %24
  %38 = icmp ult i64 %36, %24
  %39 = sub nsw i64 %26, %36
  %spec.select60 = select i1 %38, i64 %39, i64 0
  %.033 = select i1 %.not47, i64 %spec.select49, i64 %spec.select60
  %40 = trunc i64 %.033 to i32
  %41 = tail call i32 (ptr, ...) @curl_mprintf(ptr noundef nonnull @.str.31, i32 noundef %40, ptr noundef nonnull %28, ptr noundef nonnull %35) #16
  br label %42

42:                                               ; preds = %27, %33
  %43 = add i32 %.156, 1
  %44 = zext i32 %43 to i64
  %45 = getelementptr inbounds nuw [0 x %struct.helptxt], ptr @helptext, i64 0, i64 %44
  %46 = load ptr, ptr %45, align 8, !tbaa !36
  %.not45 = icmp eq ptr %46, null
  br i1 %.not45, label %._crit_edge59, label %27, !llvm.loop !41

._crit_edge59:                                    ; preds = %42, %2
  ret void
}